; Function Attrs: nounwind sspstrong uwtable
define dso_local void @qemu_iovec_discard_back(ptr noundef captures(none) %qiov, i64 noundef %bytes) local_unnamed_addr #0 {
entry:
  %niov1 = getelementptr inbounds nuw i8, ptr %qiov, i64 8
  %0 = load i32, ptr %niov1, align 8
  %size = getelementptr inbounds nuw i8, ptr %qiov, i64 32
  %1 = load i64, ptr %size, align 8
  %cmp.not = icmp ult i64 %1, %bytes
  br i1 %cmp.not, label %if.else, label %if.end

if.else:                                          ; preds = %entry
  tail call void @__assert_fail(ptr noundef nonnull @.str.15, ptr noundef nonnull @.str.1, i32 noundef 706, ptr noundef nonnull @__PRETTY_FUNCTION__.qemu_iovec_discard_back) #17
  unreachable

if.end:                                           ; preds = %entry
  %cmp.i.i = icmp eq i32 %0, 0
  br i1 %cmp.i.i, label %iov_discard_back.exit, label %while.body.preheader.i.i

while.body.preheader.i.i:                         ; preds = %if.end
  %2 = load ptr, ptr %qiov, align 8
  %sub.i.i = add i32 %0, -1
  %idx.ext.i.i = zext i32 %sub.i.i to i64
  %add.ptr.i.i = getelementptr %struct.iovec, ptr %2, i64 %idx.ext.i.i
  br label %while.body.i.i

while.body.i.i:                                   ; preds = %if.end12.i.i, %while.body.preheader.i.i
  %niov.0 = phi i32 [ %0, %while.body.preheader.i.i ], [ %sub17.i.i, %if.end12.i.i ]
  %cur.027.i.i = phi ptr [ %add.ptr.i.i, %while.body.preheader.i.i ], [ %incdec.ptr.i.i, %if.end12.i.i ]
  %total.026.i.i = phi i64 [ 0, %while.body.preheader.i.i ], [ %add16.i.i, %if.end12.i.i ]
  %bytes.addr.025.i.i = phi i64 [ %bytes, %while.body.preheader.i.i ], [ %sub14.i.i, %if.end12.i.i ]
  %iov_len.i.i = getelementptr inbounds nuw i8, ptr %cur.027.i.i, i64 8
  %3 = load i64, ptr %iov_len.i.i, align 8
  %cmp4.i.i = icmp ugt i64 %3, %bytes.addr.025.i.i
  br i1 %cmp4.i.i, label %if.then5.i.i, label %if.end12.i.i

if.then5.i.i:                                     ; preds = %while.body.i.i
  %iov_len.i.i.le = getelementptr inbounds nuw i8, ptr %cur.027.i.i, i64 8
  %sub11.i.i = sub nuw i64 %3, %bytes.addr.025.i.i
  store i64 %sub11.i.i, ptr %iov_len.i.i.le, align 8
  %add.i.i = add i64 %bytes.addr.025.i.i, %total.026.i.i
  br label %iov_discard_back.exit

if.end12.i.i:                                     ; preds = %while.body.i.i
  %sub14.i.i = sub nuw i64 %bytes.addr.025.i.i, %3
  %add16.i.i = add i64 %3, %total.026.i.i
  %incdec.ptr.i.i = getelementptr i8, ptr %cur.027.i.i, i64 -16
  %sub17.i.i = add i32 %niov.0, -1
  %cmp3.not.i.i = icmp eq i32 %sub17.i.i, 0
  br i1 %cmp3.not.i.i, label %iov_discard_back.exit, label %while.body.i.i, !llvm.loop !26

iov_discard_back.exit:                            ; preds = %if.end12.i.i, %if.end, %if.then5.i.i
  %niov.1 = phi i32 [ 0, %if.end ], [ %niov.0, %if.then5.i.i ], [ 0, %if.end12.i.i ]
  %retval.0.i.i = phi i64 [ 0, %if.end ], [ %add.i.i, %if.then5.i.i ], [ %add16.i.i, %if.end12.i.i ]
  %cmp2 = icmp eq i64 %retval.0.i.i, %bytes
  br i1 %cmp2, label %if.end5, label %if.else4

if.else4:                                         ; preds = %iov_discard_back.exit
  tail call void @__assert_fail(ptr noundef nonnull @.str.16, ptr noundef nonnull @.str.1, i32 noundef 708, ptr noundef nonnull @__PRETTY_FUNCTION__.qemu_iovec_discard_back) #17
  unreachable

if.end5:                                          ; preds = %iov_discard_back.exit
  store i32 %niov.1, ptr %niov1, align 8
  %4 = load i64, ptr %size, align 8
  %sub = sub i64 %4, %bytes
  store i64 %sub, ptr %size, align 8
  ret void
}